target datalayout = "e-m:e-p270:32:32-p271:32:32-p272:64:64-i64:64-i128:128-f80:128-n8:16:32:64-S128"
target triple = "x86_64-pc-linux-gnu"

@knl_node_bitmap = internal global ptr null, align 8

; Function Attrs: nounwind uwtable
define dso_local i32 @node_features_p_overlap(ptr noundef %0) #0 {
  %2 = alloca i32, align 4
  %3 = alloca ptr, align 8
  %4 = alloca i32, align 4
  %5 = alloca i32, align 4
  store ptr %0, ptr %3, align 8
  call void @llvm.lifetime.start.p0(i64 4, ptr %4) #9
  store i32 0, ptr %4, align 4
  %6 = load ptr, ptr @knl_node_bitmap, align 8
  %7 = icmp ne ptr %6, null
  br i1 %7, label %8, label %16

8:                                                ; preds = %1
  %9 = load ptr, ptr %3, align 8
  %10 = icmp ne ptr %9, null
  br i1 %10, label %11, label %16

11:                                               ; preds = %8
  %12 = load ptr, ptr %3, align 8
  %13 = load ptr, ptr @knl_node_bitmap, align 8
  %14 = call i32 @bit_overlap(ptr noundef %12, ptr noundef %13)
  store i32 %14, ptr %4, align 4
  %15 = icmp ne i32 %14, 0
  br i1 %15, label %17, label %16

16:                                               ; preds = %11, %8, %1
  store i32 0, ptr %2, align 4
  store i32 1, ptr %5, align 4
  br label %19

17:                                               ; preds = %11
  %18 = load i32, ptr %4, align 4
  store i32 %18, ptr %2, align 4
  store i32 1, ptr %5, align 4
  br label %19

19:                                               ; preds = %17, %16
  call void @llvm.lifetime.end.p0(i64 4, ptr %4) #9
  %20 = load i32, ptr %2, align 4
  ret i32 %20
}