; Function Attrs: nounwind uwtable
define dso_local i32 @node_features_p_overlap(ptr noundef %0) local_unnamed_addr #0 {
  %2 = load ptr, ptr @knl_node_bitmap, align 8
  %3 = icmp ne ptr %2, null
  %4 = icmp ne ptr %0, null
  %or.cond = and i1 %4, %3
  br i1 %or.cond, label %5, label %7

5:                                                ; preds = %1
  %6 = tail call i32 @bit_overlap(ptr noundef nonnull %0, ptr noundef nonnull %2) #14
  br label %7

7:                                                ; preds = %5, %1
  %.0 = phi i32 [ 0, %1 ], [ %6, %5 ]
  ret i32 %.0
}